; Function Attrs: mustprogress nofree norecurse nosync nounwind willreturn memory(none) uwtable
define internal noundef range(i32 0, 2) i32 @_ZL11VL_LTES_IIIijj(i32 noundef %0, i32 noundef %1, i32 noundef %2) #4 {
  %4 = zext i32 %1 to i64
  %5 = add nsw i32 %0, -1
  %6 = zext nneg i32 %5 to i64
  %7 = shl nuw i64 1, %6
  %8 = and i64 %7, %4
  %9 = sub nsw i64 0, %8
  %10 = or i64 %9, %4
  %11 = zext i32 %2 to i64
  %12 = and i64 %7, %11
  %13 = sub nsw i64 0, %12
  %14 = or i64 %13, %11
  %15 = icmp sle i64 %10, %14
  %16 = zext i1 %15 to i32
  ret i32 %16
}